; Function Attrs: nofree nounwind sspstrong memory(write) uwtable
define hidden void @FLAC__window_nuttall(ptr noundef writeonly captures(none) %0, i32 noundef %1) local_unnamed_addr #1 {
  %3 = icmp sgt i32 %1, 0
  br i1 %3, label %.lr.ph, label %._crit_edge

.lr.ph:                                           ; preds = %2
  %4 = add nsw i32 %1, -1
  %5 = uitofp nneg i32 %4 to double
  %wide.trip.count = zext nneg i32 %1 to i64
  %6 = fdiv reassoc nsz arcp double 1.000000e+00, %5
  %7 = fdiv reassoc nsz arcp double 1.000000e+00, %5
  %8 = fdiv reassoc nsz arcp double 1.000000e+00, %5
  br label %9

9:                                                ; preds = %.lr.ph, %9
  %indvars.iv = phi i64 [ 0, %.lr.ph ], [ %indvars.iv.next, %9 ]
  %10 = trunc nuw nsw i64 %indvars.iv to i32
  %11 = uitofp nneg i32 %10 to double
  %12 = fmul reassoc nsz arcp double %11, 0x401921FB54442D18
  %13 = fmul reassoc nsz arcp double %12, %6
  %14 = fptrunc reassoc nsz arcp double %13 to float
  %15 = tail call reassoc nsz arcp float @cosf(float noundef %14) #6, !tbaa !12
  %16 = tail call reassoc nsz arcp float @llvm.fmuladd.f32(float %15, float 0xBFDF4EAF20000000, float 0x3FD744ED00000000)
  %17 = fmul reassoc nsz arcp double %11, 0x402921FB54442D18
  %18 = fmul reassoc nsz arcp double %17, %7
  %19 = fptrunc reassoc nsz arcp double %18 to float
  %20 = tail call reassoc nsz arcp float @cosf(float noundef %19) #6, !tbaa !12
  %21 = tail call reassoc nsz arcp float @llvm.fmuladd.f32(float %20, float 0x3FC17C17A0000000, float %16)
  %22 = fmul reassoc nsz arcp double %11, 0x4032D97C7F3321D2
  %23 = fmul reassoc nsz arcp double %22, %8
  %24 = fptrunc reassoc nsz arcp double %23 to float
  %25 = tail call reassoc nsz arcp float @cosf(float noundef %24) #6, !tbaa !12
  %26 = tail call reassoc nsz arcp float @llvm.fmuladd.f32(float %25, float 0xBF85CB0040000000, float %21)
  %27 = getelementptr inbounds nuw float, ptr %0, i64 %indvars.iv
  store float %26, ptr %27, align 4, !tbaa !3
  %indvars.iv.next = add nuw nsw i64 %indvars.iv, 1
  %exitcond.not = icmp eq i64 %indvars.iv.next, %wide.trip.count
  br i1 %exitcond.not, label %._crit_edge, label %9, !llvm.loop !23

._crit_edge:                                      ; preds = %9, %2
  ret void
}